; ModuleID = '19/423.c'
source_filename = "19/423.c"
target datalayout = "e-m:e-p270:32:32-p271:32:32-p272:64:64-i64:64-f80:128-n8:16:32:64-S128"
target triple = "x86_64-pc-linux-gnu"

@.str = private unnamed_addr constant [3 x i8] c"%s\00", align 1
@.str.1 = private unnamed_addr constant [5 x i8] c"%s%s\00", align 1
@.str.2 = private unnamed_addr constant [4 x i8] c" %s\00", align 1

; Function Attrs: noinline nounwind uwtable
define dso_local void @main() #0 {
  %1 = alloca [30 x [20 x i8]], align 16
  %2 = alloca [20 x i8], align 16
  %3 = alloca [20 x i8], align 16
  %4 = alloca [30 x i8*], align 16
  %5 = alloca i8*, align 8
  %6 = alloca i8*, align 8
  %7 = alloca i32, align 4
  %8 = alloca i32, align 4
  %9 = bitcast [30 x [20 x i8]]* %1 to i8*
  call void @llvm.memset.p0i8.i64(i8* align 16 %9, i8 0, i64 600, i1 false)
  %10 = bitcast [20 x i8]* %2 to i8*
  call void @llvm.memset.p0i8.i64(i8* align 16 %10, i8 0, i64 20, i1 false)
  %11 = bitcast [20 x i8]* %3 to i8*
  call void @llvm.memset.p0i8.i64(i8* align 16 %11, i8 0, i64 20, i1 false)
  store i32 1, i32* %8, align 4
  store i32 0, i32* %7, align 4
  br label %12

12:                                               ; preds = %25, %0
  %13 = load i32, i32* %7, align 4
  %14 = icmp slt i32 %13, 30
  br i1 %14, label %15, label %28

15:                                               ; preds = %12
  %16 = getelementptr inbounds [30 x [20 x i8]], [30 x [20 x i8]]* %1, i64 0, i64 0
  %17 = load i32, i32* %7, align 4
  %18 = sext i32 %17 to i64
  %19 = getelementptr inbounds [20 x i8], [20 x i8]* %16, i64 %18
  %20 = getelementptr inbounds [20 x i8], [20 x i8]* %19, i64 0, i64 0
  %21 = getelementptr inbounds [30 x i8*], [30 x i8*]* %4, i64 0, i64 0
  %22 = load i32, i32* %7, align 4
  %23 = sext i32 %22 to i64
  %24 = getelementptr inbounds i8*, i8** %21, i64 %23
  store i8* %20, i8** %24, align 8
  br label %25

25:                                               ; preds = %15
  %26 = load i32, i32* %7, align 4
  %27 = add nsw i32 %26, 1
  store i32 %27, i32* %7, align 4
  br label %12

28:                                               ; preds = %12
  %29 = getelementptr inbounds [20 x i8], [20 x i8]* %2, i64 0, i64 0
  store i8* %29, i8** %5, align 8
  %30 = getelementptr inbounds [20 x i8], [20 x i8]* %3, i64 0, i64 0
  store i8* %30, i8** %6, align 8
  %31 = getelementptr inbounds [30 x i8*], [30 x i8*]* %4, i64 0, i64 0
  %32 = load i8*, i8** %31, align 16
  %33 = call i32 (i8*, ...) @__isoc99_scanf(i8* getelementptr inbounds ([3 x i8], [3 x i8]* @.str, i64 0, i64 0), i8* %32)
  store i32 1, i32* %7, align 4
  br label %34

34:                                               ; preds = %46, %28
  %35 = call i32 @getchar()
  %36 = icmp ne i32 %35, 10
  br i1 %36, label %37, label %49

37:                                               ; preds = %34
  %38 = getelementptr inbounds [30 x i8*], [30 x i8*]* %4, i64 0, i64 0
  %39 = load i32, i32* %7, align 4
  %40 = sext i32 %39 to i64
  %41 = getelementptr inbounds i8*, i8** %38, i64 %40
  %42 = load i8*, i8** %41, align 8
  %43 = call i32 (i8*, ...) @__isoc99_scanf(i8* getelementptr inbounds ([3 x i8], [3 x i8]* @.str, i64 0, i64 0), i8* %42)
  %44 = load i32, i32* %8, align 4
  %45 = add nsw i32 %44, 1
  store i32 %45, i32* %8, align 4
  br label %46

46:                                               ; preds = %37
  %47 = load i32, i32* %7, align 4
  %48 = add nsw i32 %47, 1
  store i32 %48, i32* %7, align 4
  br label %34

49:                                               ; preds = %34
  %50 = load i8*, i8** %5, align 8
  %51 = load i8*, i8** %6, align 8
  %52 = call i32 (i8*, ...) @__isoc99_scanf(i8* getelementptr inbounds ([5 x i8], [5 x i8]* @.str.1, i64 0, i64 0), i8* %50, i8* %51)
  store i32 0, i32* %7, align 4
  br label %53

53:                                               ; preds = %75, %49
  %54 = load i32, i32* %7, align 4
  %55 = load i32, i32* %8, align 4
  %56 = icmp slt i32 %54, %55
  br i1 %56, label %57, label %78

57:                                               ; preds = %53
  %58 = getelementptr inbounds [30 x i8*], [30 x i8*]* %4, i64 0, i64 0
  %59 = load i32, i32* %7, align 4
  %60 = sext i32 %59 to i64
  %61 = getelementptr inbounds i8*, i8** %58, i64 %60
  %62 = load i8*, i8** %61, align 8
  %63 = load i8*, i8** %5, align 8
  %64 = call i32 @strcmp(i8* %62, i8* %63) #5
  %65 = icmp eq i32 %64, 0
  br i1 %65, label %66, label %74

66:                                               ; preds = %57
  %67 = getelementptr inbounds [30 x i8*], [30 x i8*]* %4, i64 0, i64 0
  %68 = load i32, i32* %7, align 4
  %69 = sext i32 %68 to i64
  %70 = getelementptr inbounds i8*, i8** %67, i64 %69
  %71 = load i8*, i8** %70, align 8
  %72 = load i8*, i8** %6, align 8
  %73 = call i8* @strcpy(i8* %71, i8* %72) #6
  br label %74

74:                                               ; preds = %66, %57
  br label %75

75:                                               ; preds = %74
  %76 = load i32, i32* %7, align 4
  %77 = add nsw i32 %76, 1
  store i32 %77, i32* %7, align 4
  br label %53

78:                                               ; preds = %53
  %79 = getelementptr inbounds [30 x i8*], [30 x i8*]* %4, i64 0, i64 0
  %80 = load i8*, i8** %79, align 16
  %81 = call i32 (i8*, ...) @printf(i8* getelementptr inbounds ([3 x i8], [3 x i8]* @.str, i64 0, i64 0), i8* %80)
  store i32 1, i32* %7, align 4
  br label %82

82:                                               ; preds = %93, %78
  %83 = load i32, i32* %7, align 4
  %84 = load i32, i32* %8, align 4
  %85 = icmp slt i32 %83, %84
  br i1 %85, label %86, label %96

86:                                               ; preds = %82
  %87 = getelementptr inbounds [30 x i8*], [30 x i8*]* %4, i64 0, i64 0
  %88 = load i32, i32* %7, align 4
  %89 = sext i32 %88 to i64
  %90 = getelementptr inbounds i8*, i8** %87, i64 %89
  %91 = load i8*, i8** %90, align 8
  %92 = call i32 (i8*, ...) @printf(i8* getelementptr inbounds ([4 x i8], [4 x i8]* @.str.2, i64 0, i64 0), i8* %91)
  br label %93

93:                                               ; preds = %86
  %94 = load i32, i32* %7, align 4
  %95 = add nsw i32 %94, 1
  store i32 %95, i32* %7, align 4
  br label %82

96:                                               ; preds = %82
  ret void
}

; Function Attrs: argmemonly nounwind willreturn
declare void @llvm.memset.p0i8.i64(i8* nocapture writeonly, i8, i64, i1 immarg) #1

declare dso_local i32 @__isoc99_scanf(i8*, ...) #2

declare dso_local i32 @getchar() #2

; Function Attrs: nounwind readonly
declare dso_local i32 @strcmp(i8*, i8*) #3

; Function Attrs: nounwind
declare dso_local i8* @strcpy(i8*, i8*) #4

declare dso_local i32 @printf(i8*, ...) #2


!llvm.module.flags = !{!0}
!llvm.ident = !{!1}

!0 = !{i32 1, !"wchar_size", i32 4}
!1 = !{!"clang version 10.0.0-4ubuntu1 "}
